#include <math.h>
#include <stdio.h>
#include <stdlib.h>
#include <string.h>
#include <iostream>
using namespace std;

/*????????????????: ?????????????1????????????2?????
 * ???????a???????????a??????
 * n?????????????
 *????: 2012-10-4
 *??: ??
 */

int main()
{
	int n, i, j, a;
    cin >> n;    //n???
    for(i = 1; i <= n; i++)
        {cin >> a;
        int fibo[a+1];      //????????
        fibo[0] = 0;        //fibo[0]???0??fibo[a]????
        fibo[1] = 1;
        for(j = 2; j <= a; j++)
	        fibo[j] = fibo[j-1] + fibo[j-2];    //???fibo[a]
        cout << fibo[a] << endl;
        }
    return 0;
}
