; ModuleID = 'source-C-CXX/60/1376.cpp'
source_filename = "source-C-CXX/60/1376.cpp"
target datalayout = "e-m:e-p270:32:32-p271:32:32-p272:64:64-i64:64-f80:128-n8:16:32:64-S128"
target triple = "x86_64-pc-linux-gnu"

%"class.std::ios_base::Init" = type { i8 }
%"class.std::basic_istream" = type { i32 (...)**, i64, %"class.std::basic_ios" }
%"class.std::basic_ios" = type { %"class.std::ios_base", %"class.std::basic_ostream"*, i8, i8, %"class.std::basic_streambuf"*, %"class.std::ctype"*, %"class.std::num_put"*, %"class.std::num_get"* }
%"class.std::ios_base" = type { i32 (...)**, i64, i64, i32, i32, i32, %"struct.std::ios_base::_Callback_list"*, %"struct.std::ios_base::_Words", [8 x %"struct.std::ios_base::_Words"], i32, %"struct.std::ios_base::_Words"*, %"class.std::locale" }
%"struct.std::ios_base::_Callback_list" = type { %"struct.std::ios_base::_Callback_list"*, void (i32, %"class.std::ios_base"*, i32)*, i32, i32 }
%"struct.std::ios_base::_Words" = type { i8*, i64 }
%"class.std::locale" = type { %"class.std::locale::_Impl"* }
%"class.std::locale::_Impl" = type { i32, %"class.std::locale::facet"**, i64, %"class.std::locale::facet"**, i8** }
%"class.std::locale::facet" = type <{ i32 (...)**, i32, [4 x i8] }>
%"class.std::basic_ostream" = type { i32 (...)**, %"class.std::basic_ios" }
%"class.std::basic_streambuf" = type { i32 (...)**, i8*, i8*, i8*, i8*, i8*, i8*, %"class.std::locale" }
%"class.std::ctype" = type <{ %"class.std::locale::facet.base", [4 x i8], %struct.__locale_struct*, i8, [7 x i8], i32*, i32*, i16*, i8, [256 x i8], [256 x i8], i8, [6 x i8] }>
%"class.std::locale::facet.base" = type <{ i32 (...)**, i32 }>
%struct.__locale_struct = type { [13 x %struct.__locale_data*], i16*, i32*, i32*, [13 x i8*] }
%struct.__locale_data = type opaque
%"class.std::num_put" = type { %"class.std::locale::facet.base", [4 x i8] }
%"class.std::num_get" = type { %"class.std::locale::facet.base", [4 x i8] }

@_ZStL8__ioinit = internal global %"class.std::ios_base::Init" zeroinitializer, align 1
@__dso_handle = external hidden global i8
@_ZSt3cin = external global %"class.std::basic_istream", align 8
@_ZSt4cout = external global %"class.std::basic_ostream", align 8
@llvm.global_ctors = appending global [1 x { i32, void ()*, i8* }] [{ i32, void ()*, i8* } { i32 65535, void ()* @_GLOBAL__sub_I_1376.cpp, i8* null }]

declare void @_ZNSt8ios_base4InitC1Ev(%"class.std::ios_base::Init"* nonnull align 1 dereferenceable(1)) unnamed_addr #0

; Function Attrs: nounwind
declare void @_ZNSt8ios_base4InitD1Ev(%"class.std::ios_base::Init"* nonnull align 1 dereferenceable(1)) unnamed_addr #1

; Function Attrs: nofree nounwind
declare i32 @__cxa_atexit(void (i8*)*, i8*, i8*) local_unnamed_addr #2

; Function Attrs: mustprogress norecurse sspstrong uwtable
define dso_local i32 @main() local_unnamed_addr #3 {
  %1 = alloca i32, align 4
  %2 = alloca i32, align 4
  %3 = bitcast i32* %1 to i8*
  call void @llvm.lifetime.start.p0i8(i64 4, i8* nonnull %3) #8
  %4 = bitcast i32* %2 to i8*
  call void @llvm.lifetime.start.p0i8(i64 4, i8* nonnull %4) #8
  %5 = call nonnull align 8 dereferenceable(16) %"class.std::basic_istream"* @_ZNSirsERi(%"class.std::basic_istream"* nonnull align 8 dereferenceable(16) @_ZSt3cin, i32* nonnull align 4 dereferenceable(4) %1)
  %6 = load i32, i32* %1, align 4, !tbaa !5
  %7 = icmp slt i32 %6, 1
  br i1 %7, label %115, label %8

8:                                                ; preds = %0, %108
  %9 = phi i32 [ %112, %108 ], [ 1, %0 ]
  %10 = call nonnull align 8 dereferenceable(16) %"class.std::basic_istream"* @_ZNSirsERi(%"class.std::basic_istream"* nonnull align 8 dereferenceable(16) @_ZSt3cin, i32* nonnull align 4 dereferenceable(4) %2)
  %11 = load i32, i32* %2, align 4, !tbaa !5
  %12 = add nsw i32 %11, 1
  %13 = zext i32 %12 to i64
  %14 = call i8* @llvm.stacksave()
  %15 = alloca i32, i64 %13, align 16
  store i32 0, i32* %15, align 16, !tbaa !5
  %16 = getelementptr inbounds i32, i32* %15, i64 1
  store i32 1, i32* %16, align 4, !tbaa !5
  %17 = load i32, i32* %2, align 4, !tbaa !5
  %18 = icmp slt i32 %17, 2
  br i1 %18, label %78, label %19

19:                                               ; preds = %8
  %20 = add nuw i32 %17, 1
  %21 = zext i32 %20 to i64
  %22 = getelementptr inbounds i32, i32* %15, i64 2
  store i32 1, i32* %22, align 8, !tbaa !5
  %23 = icmp eq i32 %20, 3
  br i1 %23, label %78, label %24, !llvm.loop !9

24:                                               ; preds = %19
  %25 = add nsw i64 %21, -3
  %26 = add nsw i64 %21, -4
  %27 = and i64 %25, 3
  %28 = icmp ult i64 %26, 3
  br i1 %28, label %60, label %29

29:                                               ; preds = %24
  %30 = and i64 %25, -4
  br label %31

31:                                               ; preds = %31, %29
  %32 = phi i64 [ 3, %29 ], [ %57, %31 ]
  %33 = phi i32 [ 1, %29 ], [ %55, %31 ]
  %34 = phi i64 [ 2, %29 ], [ %52, %31 ]
  %35 = phi i64 [ %30, %29 ], [ %58, %31 ]
  %36 = add nsw i64 %34, -1
  %37 = getelementptr inbounds i32, i32* %15, i64 %36
  %38 = load i32, i32* %37, align 4, !tbaa !5
  %39 = add nsw i32 %38, %33
  %40 = getelementptr inbounds i32, i32* %15, i64 %32
  store i32 %39, i32* %40, align 4, !tbaa !5
  %41 = add nuw nsw i64 %32, 1
  %42 = add nsw i64 %32, -1
  %43 = getelementptr inbounds i32, i32* %15, i64 %42
  %44 = load i32, i32* %43, align 4, !tbaa !5
  %45 = add nsw i32 %44, %39
  %46 = getelementptr inbounds i32, i32* %15, i64 %41
  store i32 %45, i32* %46, align 4, !tbaa !5
  %47 = add nuw nsw i64 %32, 2
  %48 = getelementptr inbounds i32, i32* %15, i64 %32
  %49 = load i32, i32* %48, align 4, !tbaa !5
  %50 = add nsw i32 %49, %45
  %51 = getelementptr inbounds i32, i32* %15, i64 %47
  store i32 %50, i32* %51, align 4, !tbaa !5
  %52 = add nuw nsw i64 %32, 3
  %53 = getelementptr inbounds i32, i32* %15, i64 %41
  %54 = load i32, i32* %53, align 4, !tbaa !5
  %55 = add nsw i32 %54, %50
  %56 = getelementptr inbounds i32, i32* %15, i64 %52
  store i32 %55, i32* %56, align 4, !tbaa !5
  %57 = add nuw nsw i64 %32, 4
  %58 = add i64 %35, -4
  %59 = icmp eq i64 %58, 0
  br i1 %59, label %60, label %31, !llvm.loop !9

60:                                               ; preds = %31, %24
  %61 = phi i64 [ 3, %24 ], [ %57, %31 ]
  %62 = phi i32 [ 1, %24 ], [ %55, %31 ]
  %63 = phi i64 [ 2, %24 ], [ %52, %31 ]
  %64 = icmp eq i64 %27, 0
  br i1 %64, label %78, label %65

65:                                               ; preds = %60, %65
  %66 = phi i64 [ %75, %65 ], [ %61, %60 ]
  %67 = phi i32 [ %73, %65 ], [ %62, %60 ]
  %68 = phi i64 [ %66, %65 ], [ %63, %60 ]
  %69 = phi i64 [ %76, %65 ], [ %27, %60 ]
  %70 = add nsw i64 %68, -1
  %71 = getelementptr inbounds i32, i32* %15, i64 %70
  %72 = load i32, i32* %71, align 4, !tbaa !5
  %73 = add nsw i32 %72, %67
  %74 = getelementptr inbounds i32, i32* %15, i64 %66
  store i32 %73, i32* %74, align 4, !tbaa !5
  %75 = add nuw nsw i64 %66, 1
  %76 = add i64 %69, -1
  %77 = icmp eq i64 %76, 0
  br i1 %77, label %78, label %65, !llvm.loop !11

78:                                               ; preds = %60, %65, %19, %8
  %79 = sext i32 %17 to i64
  %80 = getelementptr inbounds i32, i32* %15, i64 %79
  %81 = load i32, i32* %80, align 4, !tbaa !5
  %82 = call nonnull align 8 dereferenceable(8) %"class.std::basic_ostream"* @_ZNSolsEi(%"class.std::basic_ostream"* nonnull align 8 dereferenceable(8) @_ZSt4cout, i32 %81)
  %83 = bitcast %"class.std::basic_ostream"* %82 to i8**
  %84 = load i8*, i8** %83, align 8, !tbaa !13
  %85 = getelementptr i8, i8* %84, i64 -24
  %86 = bitcast i8* %85 to i64*
  %87 = load i64, i64* %86, align 8
  %88 = bitcast %"class.std::basic_ostream"* %82 to i8*
  %89 = add nsw i64 %87, 240
  %90 = getelementptr inbounds i8, i8* %88, i64 %89
  %91 = bitcast i8* %90 to %"class.std::ctype"**
  %92 = load %"class.std::ctype"*, %"class.std::ctype"** %91, align 8, !tbaa !15
  %93 = icmp eq %"class.std::ctype"* %92, null
  br i1 %93, label %94, label %95

94:                                               ; preds = %78
  call void @_ZSt16__throw_bad_castv() #9
  unreachable

95:                                               ; preds = %78
  %96 = getelementptr inbounds %"class.std::ctype", %"class.std::ctype"* %92, i64 0, i32 8
  %97 = load i8, i8* %96, align 8, !tbaa !19
  %98 = icmp eq i8 %97, 0
  br i1 %98, label %102, label %99

99:                                               ; preds = %95
  %100 = getelementptr inbounds %"class.std::ctype", %"class.std::ctype"* %92, i64 0, i32 9, i64 10
  %101 = load i8, i8* %100, align 1, !tbaa !21
  br label %108

102:                                              ; preds = %95
  call void @_ZNKSt5ctypeIcE13_M_widen_initEv(%"class.std::ctype"* nonnull align 8 dereferenceable(570) %92)
  %103 = bitcast %"class.std::ctype"* %92 to i8 (%"class.std::ctype"*, i8)***
  %104 = load i8 (%"class.std::ctype"*, i8)**, i8 (%"class.std::ctype"*, i8)*** %103, align 8, !tbaa !13
  %105 = getelementptr inbounds i8 (%"class.std::ctype"*, i8)*, i8 (%"class.std::ctype"*, i8)** %104, i64 6
  %106 = load i8 (%"class.std::ctype"*, i8)*, i8 (%"class.std::ctype"*, i8)** %105, align 8
  %107 = call signext i8 %106(%"class.std::ctype"* nonnull align 8 dereferenceable(570) %92, i8 signext 10)
  br label %108

108:                                              ; preds = %99, %102
  %109 = phi i8 [ %101, %99 ], [ %107, %102 ]
  %110 = call nonnull align 8 dereferenceable(8) %"class.std::basic_ostream"* @_ZNSo3putEc(%"class.std::basic_ostream"* nonnull align 8 dereferenceable(8) %82, i8 signext %109)
  %111 = call nonnull align 8 dereferenceable(8) %"class.std::basic_ostream"* @_ZNSo5flushEv(%"class.std::basic_ostream"* nonnull align 8 dereferenceable(8) %110)
  call void @llvm.stackrestore(i8* %14)
  %112 = add nuw nsw i32 %9, 1
  %113 = load i32, i32* %1, align 4, !tbaa !5
  %114 = icmp slt i32 %9, %113
  br i1 %114, label %8, label %115, !llvm.loop !22

115:                                              ; preds = %108, %0
  call void @llvm.lifetime.end.p0i8(i64 4, i8* nonnull %4) #8
  call void @llvm.lifetime.end.p0i8(i64 4, i8* nonnull %3) #8
  ret i32 0
}

; Function Attrs: argmemonly mustprogress nofree nosync nounwind willreturn
declare void @llvm.lifetime.start.p0i8(i64 immarg, i8* nocapture) #4

declare nonnull align 8 dereferenceable(16) %"class.std::basic_istream"* @_ZNSirsERi(%"class.std::basic_istream"* nonnull align 8 dereferenceable(16), i32* nonnull align 4 dereferenceable(4)) local_unnamed_addr #0

; Function Attrs: mustprogress nofree nosync nounwind willreturn
declare i8* @llvm.stacksave() #5

declare nonnull align 8 dereferenceable(8) %"class.std::basic_ostream"* @_ZNSolsEi(%"class.std::basic_ostream"* nonnull align 8 dereferenceable(8), i32) local_unnamed_addr #0

; Function Attrs: mustprogress nofree nosync nounwind willreturn
declare void @llvm.stackrestore(i8*) #5

; Function Attrs: argmemonly mustprogress nofree nosync nounwind willreturn
declare void @llvm.lifetime.end.p0i8(i64 immarg, i8* nocapture) #4

declare nonnull align 8 dereferenceable(8) %"class.std::basic_ostream"* @_ZNSo3putEc(%"class.std::basic_ostream"* nonnull align 8 dereferenceable(8), i8 signext) local_unnamed_addr #0

declare nonnull align 8 dereferenceable(8) %"class.std::basic_ostream"* @_ZNSo5flushEv(%"class.std::basic_ostream"* nonnull align 8 dereferenceable(8)) local_unnamed_addr #0

; Function Attrs: noreturn
declare void @_ZSt16__throw_bad_castv() local_unnamed_addr #6

declare void @_ZNKSt5ctypeIcE13_M_widen_initEv(%"class.std::ctype"* nonnull align 8 dereferenceable(570)) local_unnamed_addr #0

; Function Attrs: sspstrong uwtable
define internal void @_GLOBAL__sub_I_1376.cpp() #7 section ".text.startup" {
  tail call void @_ZNSt8ios_base4InitC1Ev(%"class.std::ios_base::Init"* nonnull align 1 dereferenceable(1) @_ZStL8__ioinit)
  %1 = tail call i32 @__cxa_atexit(void (i8*)* bitcast (void (%"class.std::ios_base::Init"*)* @_ZNSt8ios_base4InitD1Ev to void (i8*)*), i8* getelementptr inbounds (%"class.std::ios_base::Init", %"class.std::ios_base::Init"* @_ZStL8__ioinit, i64 0, i32 0), i8* nonnull @__dso_handle) #8
  ret void
}


!llvm.module.flags = !{!0, !1, !2, !3}
!llvm.ident = !{!4}

!0 = !{i32 1, !"wchar_size", i32 4}
!1 = !{i32 7, !"PIC Level", i32 2}
!2 = !{i32 7, !"PIE Level", i32 2}
!3 = !{i32 7, !"uwtable", i32 1}
!4 = !{!"clang version 13.0.0"}
!5 = !{!6, !6, i64 0}
!6 = !{!"int", !7, i64 0}
!7 = !{!"omnipotent char", !8, i64 0}
!8 = !{!"Simple C++ TBAA"}
!9 = distinct !{!9, !10}
!10 = !{!"llvm.loop.mustprogress"}
!11 = distinct !{!11, !12}
!12 = !{!"llvm.loop.unroll.disable"}
!13 = !{!14, !14, i64 0}
!14 = !{!"vtable pointer", !8, i64 0}
!15 = !{!16, !17, i64 240}
!16 = !{!"_ZTSSt9basic_iosIcSt11char_traitsIcEE", !17, i64 216, !7, i64 224, !18, i64 225, !17, i64 232, !17, i64 240, !17, i64 248, !17, i64 256}
!17 = !{!"any pointer", !7, i64 0}
!18 = !{!"bool", !7, i64 0}
!19 = !{!20, !7, i64 56}
!20 = !{!"_ZTSSt5ctypeIcE", !17, i64 16, !18, i64 24, !17, i64 32, !17, i64 40, !17, i64 48, !7, i64 56, !7, i64 57, !7, i64 313, !7, i64 569}
!21 = !{!7, !7, i64 0}
!22 = distinct !{!22, !10}
